; Function Attrs: mustprogress uwtable
define noundef zeroext i1 @_ZN6google8protobuf2io16CodedInputStream22GetDirectBufferPointerEPPKvPi(ptr noundef nonnull align 8 captures(none) dereferenceable(80) %0, ptr noundef writeonly captures(none) %1, ptr noundef writeonly captures(none) %2) local_unnamed_addr #4 align 2 {
  %4 = getelementptr inbounds nuw i8, ptr %0, i64 8
  %5 = load ptr, ptr %4, align 8, !tbaa !14
  %6 = load ptr, ptr %0, align 8, !tbaa !15
  %7 = ptrtoint ptr %5 to i64
  %8 = ptrtoint ptr %6 to i64
  %9 = sub i64 %7, %8
  %10 = and i64 %9, 4294967295
  %11 = icmp eq i64 %10, 0
  br i1 %11, label %12, label %14

12:                                               ; preds = %3
  %13 = tail call noundef zeroext i1 @_ZN6google8protobuf2io16CodedInputStream7RefreshEv(ptr noundef nonnull align 8 dereferenceable(80) %0)
  br i1 %13, label %._crit_edge, label %22

._crit_edge:                                      ; preds = %12
  %.pre = load ptr, ptr %0, align 8, !tbaa !15
  br label %14

14:                                               ; preds = %._crit_edge, %3
  %15 = phi ptr [ %.pre, %._crit_edge ], [ %6, %3 ]
  store ptr %15, ptr %1, align 8, !tbaa !33
  %16 = load ptr, ptr %4, align 8, !tbaa !14
  %17 = load ptr, ptr %0, align 8, !tbaa !15
  %18 = ptrtoint ptr %16 to i64
  %19 = ptrtoint ptr %17 to i64
  %20 = sub i64 %18, %19
  %21 = trunc i64 %20 to i32
  store i32 %21, ptr %2, align 4, !tbaa !23
  br label %22

22:                                               ; preds = %12, %14
  %.0 = phi i1 [ true, %14 ], [ false, %12 ]
  ret i1 %.0
}